target datalayout = "e-m:e-p270:32:32-p271:32:32-p272:64:64-i64:64-i128:128-f80:128-n8:16:32:64-S128"
target triple = "x86_64-unknown-linux-gnu"

; Function Attrs: nounwind sspstrong uwtable
define internal void @g_autoptr_cleanup_generic_gfree(ptr noundef %p) #0 {
entry:
  %p.addr = alloca ptr, align 8
  %pp = alloca ptr, align 8
  store ptr %p, ptr %p.addr, align 8
  %0 = load ptr, ptr %p.addr, align 8
  store ptr %0, ptr %pp, align 8
  %1 = load ptr, ptr %pp, align 8
  %2 = load ptr, ptr %1, align 8
  call void @g_free(ptr noundef %2)
  ret void
}

; Function Attrs: nounwind sspstrong uwtable
define internal void @qcrypto_afsplit_xor(i64 noundef %blocklen, ptr noundef %in1, ptr noundef %in2, ptr noundef %out) #0 {
entry:
  %blocklen.addr = alloca i64, align 8
  %in1.addr = alloca ptr, align 8
  %in2.addr = alloca ptr, align 8
  %out.addr = alloca ptr, align 8
  %i = alloca i64, align 8
  store i64 %blocklen, ptr %blocklen.addr, align 8
  store ptr %in1, ptr %in1.addr, align 8
  store ptr %in2, ptr %in2.addr, align 8
  store ptr %out, ptr %out.addr, align 8
  store i64 0, ptr %i, align 8
  br label %for.cond

for.cond:                                         ; preds = %for.inc, %entry
  %0 = load i64, ptr %i, align 8
  %1 = load i64, ptr %blocklen.addr, align 8
  %cmp = icmp ult i64 %0, %1
  br i1 %cmp, label %for.body, label %for.end

for.body:                                         ; preds = %for.cond
  %2 = load ptr, ptr %in1.addr, align 8
  %3 = load i64, ptr %i, align 8
  %arrayidx = getelementptr i8, ptr %2, i64 %3
  %4 = load i8, ptr %arrayidx, align 1
  %conv = zext i8 %4 to i32
  %5 = load ptr, ptr %in2.addr, align 8
  %6 = load i64, ptr %i, align 8
  %arrayidx1 = getelementptr i8, ptr %5, i64 %6
  %7 = load i8, ptr %arrayidx1, align 1
  %conv2 = zext i8 %7 to i32
  %xor = xor i32 %conv, %conv2
  %conv3 = trunc i32 %xor to i8
  %8 = load ptr, ptr %out.addr, align 8
  %9 = load i64, ptr %i, align 8
  %arrayidx4 = getelementptr i8, ptr %8, i64 %9
  store i8 %conv3, ptr %arrayidx4, align 1
  br label %for.inc

for.inc:                                          ; preds = %for.body
  %10 = load i64, ptr %i, align 8
  %inc = add i64 %10, 1
  store i64 %inc, ptr %i, align 8
  br label %for.cond, !llvm.loop !7

for.end:                                          ; preds = %for.cond
  ret void
}

; Function Attrs: nounwind sspstrong uwtable
define dso_local i32 @qcrypto_afsplit_decode(i32 noundef %hash, i64 noundef %blocklen, i32 noundef %stripes, ptr noundef %in, ptr noundef %out, ptr noundef %errp) #0 {
entry:
  %retval = alloca i32, align 4
  %hash.addr = alloca i32, align 4
  %blocklen.addr = alloca i64, align 8
  %stripes.addr = alloca i32, align 4
  %in.addr = alloca ptr, align 8
  %out.addr = alloca ptr, align 8
  %errp.addr = alloca ptr, align 8
  %block = alloca ptr, align 8
  %i = alloca i64, align 8
  %cleanup.dest.slot = alloca i32, align 4
  store i32 %hash, ptr %hash.addr, align 4
  store i64 %blocklen, ptr %blocklen.addr, align 8
  store i32 %stripes, ptr %stripes.addr, align 4
  store ptr %in, ptr %in.addr, align 8
  store ptr %out, ptr %out.addr, align 8
  store ptr %errp, ptr %errp.addr, align 8
  %0 = load i64, ptr %blocklen.addr, align 8
  %call = call noalias ptr @g_malloc0_n(i64 noundef %0, i64 noundef 1) #6
  store ptr %call, ptr %block, align 8
  store i64 0, ptr %i, align 8
  br label %for.cond

for.cond:                                         ; preds = %for.inc, %entry
  %1 = load i64, ptr %i, align 8
  %2 = load i32, ptr %stripes.addr, align 4
  %sub = sub i32 %2, 1
  %conv = zext i32 %sub to i64
  %cmp = icmp ult i64 %1, %conv
  br i1 %cmp, label %for.body, label %for.end

for.body:                                         ; preds = %for.cond
  %3 = load i64, ptr %blocklen.addr, align 8
  %4 = load ptr, ptr %in.addr, align 8
  %5 = load i64, ptr %i, align 8
  %6 = load i64, ptr %blocklen.addr, align 8
  %mul = mul i64 %5, %6
  %add.ptr = getelementptr i8, ptr %4, i64 %mul
  %7 = load ptr, ptr %block, align 8
  %8 = load ptr, ptr %block, align 8
  call void @qcrypto_afsplit_xor(i64 noundef %3, ptr noundef %add.ptr, ptr noundef %7, ptr noundef %8)
  %9 = load i32, ptr %hash.addr, align 4
  %10 = load i64, ptr %blocklen.addr, align 8
  %11 = load ptr, ptr %block, align 8
  %12 = load ptr, ptr %errp.addr, align 8
  %call2 = call i32 @qcrypto_afsplit_hash(i32 noundef %9, i64 noundef %10, ptr noundef %11, ptr noundef %12)
  %cmp3 = icmp slt i32 %call2, 0
  br i1 %cmp3, label %if.then, label %if.end

if.then:                                          ; preds = %for.body
  store i32 -1, ptr %retval, align 4
  store i32 1, ptr %cleanup.dest.slot, align 4
  br label %cleanup

if.end:                                           ; preds = %for.body
  br label %for.inc

for.inc:                                          ; preds = %if.end
  %13 = load i64, ptr %i, align 8
  %inc = add i64 %13, 1
  store i64 %inc, ptr %i, align 8
  br label %for.cond, !llvm.loop !9

for.end:                                          ; preds = %for.cond
  %14 = load i64, ptr %blocklen.addr, align 8
  %15 = load ptr, ptr %in.addr, align 8
  %16 = load i64, ptr %i, align 8
  %17 = load i64, ptr %blocklen.addr, align 8
  %mul5 = mul i64 %16, %17
  %add.ptr6 = getelementptr i8, ptr %15, i64 %mul5
  %18 = load ptr, ptr %block, align 8
  %19 = load ptr, ptr %out.addr, align 8
  call void @qcrypto_afsplit_xor(i64 noundef %14, ptr noundef %add.ptr6, ptr noundef %18, ptr noundef %19)
  store i32 0, ptr %retval, align 4
  store i32 1, ptr %cleanup.dest.slot, align 4
  br label %cleanup

cleanup:                                          ; preds = %for.end, %if.then
  call void @g_autoptr_cleanup_generic_gfree(ptr noundef %block)
  %20 = load i32, ptr %retval, align 4
  ret i32 %20
}